(dp0
S'mean particle size'
p1
F3.2942353095487933
sS'average temperature'
p2
cnumpy.core.multiarray
scalar
p3
(cnumpy
dtype
p4
(S'f8'
p5
I0
I1
tp6
Rp7
(I3
S'<'
p8
NNNI-1
I-1
I0
tp9
bS'\xfd\xbcm\x0b\xc6\x9be@'
p10
tp11
Rp12
sS'percent added water by weight'
p13
F0.0
sS'average pore pressure'
p14
g3
(g7
S'\x19\x94\xf1>\xf6\xaa3@'
p15
tp16
Rp17
sS'average confining pressure'
p18
g3
(g7
S"\xd2k'o\xaa\x9c=@"
p19
tp20
Rp21
s.