(dp0
S'a'
p1
cnumpy.core.multiarray
scalar
p2
(cnumpy
dtype
p3
(S'f8'
p4
I0
I1
tp5
Rp6
(I3
S'<'
p7
NNNI-1
I-1
I0
tp8
bS'\x16s\x12\xc1\x96>\xc6?'
p9
tp10
Rp11
sS'c'
p12
g2
(g6
S'\nC\x08\x7f\x07\xa7\xec?'
p13
tp14
Rp15
sS'b'
p16
g2
(g6
S'\xc7\xd9TR\xdb5`@'
p17
tp18
Rp19
sS'end'
p20
g2
(g6
S'\xcf\xf7S\xe3\xa5\x9b\x07@'
p21
tp22
Rp23
sS'd'
p24
g2
(g6
S'v\xd0(N/\x15\xed?'
p25
tp26
Rp27
sS'start'
p28
g2
(g6
S'\xc9v\xbe\x9f\x1a/\x00@'
p29
tp30
Rp31
s.