(dp0
S'slope'
p1
cnumpy.core.multiarray
scalar
p2
(cnumpy
dtype
p3
(S'f8'
p4
I0
I1
tp5
Rp6
(I3
S'<'
p7
NNNI-1
I-1
I0
tp8
bS'\xffT\xda\xaf\xc2\xc8m?'
p9
tp10
Rp11
sS'intercept'
p12
g2
(g6
S'\x9c\xb6\x82\xd2\xb1\x01\xed?'
p13
tp14
Rp15
s.