(dp0
S'a'
p1
cnumpy.core.multiarray
scalar
p2
(cnumpy
dtype
p3
(S'f8'
p4
I0
I1
tp5
Rp6
(I3
S'<'
p7
NNNI-1
I-1
I0
tp8
bS'M\xcdm\x1b\x9d2}?'
p9
tp10
Rp11
sS'start'
p12
g2
(g6
S'9\xb4\xc8v\xbe\x9f\x8a?'
p13
tp14
Rp15
sS'c'
p16
g2
(g6
S'S, PE#\x89@'
p17
tp18
Rp19
sS'intercept'
p20
g2
(g6
S'dK"\xde\x181\xeb?'
p21
tp22
Rp23
sS'b'
p24
g2
(g6
S'\x039\t\x1b\x19\x81\x0c@'
p25
tp26
Rp27
s.