(dp0
S'slope'
p1
cnumpy.core.multiarray
scalar
p2
(cnumpy
dtype
p3
(S'f8'
p4
I0
I1
tp5
Rp6
(I3
S'<'
p7
NNNI-1
I-1
I0
tp8
bS' \r\xf87\x0f\xd2\x08?'
p9
tp10
Rp11
sS'intercept'
p12
g2
(g6
S'\xd7[\x8cC\x91\x10\xec?'
p13
tp14
Rp15
s.