(dp0
S'a'
p1
cnumpy.core.multiarray
scalar
p2
(cnumpy
dtype
p3
(S'f8'
p4
I0
I1
tp5
Rp6
(I3
S'<'
p7
NNNI-1
I-1
I0
tp8
bS'\x03x\xcf\x14\x92\x17e?'
p9
tp10
Rp11
sS'start'
p12
g2
(g6
S'\x9a\x99\x99\x99\x99\x99*@'
p13
tp14
Rp15
sS'c'
p16
g2
(g6
S'w\xbe\x9f\xbd&V\xdd?'
p17
tp18
Rp19
sS'intercept'
p20
g2
(g6
S'\xc3K\xd7\xa1V(\xee?'
p21
tp22
Rp23
sS'b'
p24
g2
(g6
S't\xa8T\xff\xc3\x92\xed?'
p25
tp26
Rp27
s.