(dp0
S'a'
p1
cnumpy.core.multiarray
scalar
p2
(cnumpy
dtype
p3
(S'f8'
p4
I0
I1
tp5
Rp6
(I3
S'<'
p7
NNNI-1
I-1
I0
tp8
bS'\xa6\xfa\xa8AA\xea\x10\xc0'
p9
tp10
Rp11
sS'c'
p12
g2
(g6
S'&2?\x83i\xcd\xed?'
p13
tp14
Rp15
sS'b'
p16
g2
(g6
S'\x13\xae\xc7\xd2\x05\t\x93@'
p17
tp18
Rp19
sS'end'
p20
g2
(g6
S'\x83\xc0\xca\xa1E6 @'
p21
tp22
Rp23
sS'd'
p24
g2
(g6
S'\xba\xb7\x1e\xb68\xf1\xed?'
p25
tp26
Rp27
sS'start'
p28
g2
(g6
S'q=\n\xd7\xa3p\x1c@'
p29
tp30
Rp31
s.