(dp0
S'slope'
p1
cnumpy.core.multiarray
scalar
p2
(cnumpy
dtype
p3
(S'f8'
p4
I0
I1
tp5
Rp6
(I3
S'<'
p7
NNNI-1
I-1
I0
tp8
bS'\xd5\xc8\xd5\xc5\x1c(\xf1>'
p9
tp10
Rp11
sS'intercept'
p12
g2
(g6
S'\xec@\xa2\xca\xb7\xba\xec?'
p13
tp14
Rp15
s.