(dp0
S'a'
p1
cnumpy.core.multiarray
scalar
p2
(cnumpy
dtype
p3
(S'f8'
p4
I0
I1
tp5
Rp6
(I3
S'<'
p7
NNNI-1
I-1
I0
tp8
bS'\x88N\xd8\xdd\xbb\xd9\x08@'
p9
tp10
Rp11
sS'c'
p12
g2
(g6
S'\xc9\x08\xbb\xe9\t\xe8\xed?'
p13
tp14
Rp15
sS'b'
p16
g2
(g6
S'a\xa4&\xa8T$l\xc0'
p17
tp18
Rp19
sS'end'
p20
g2
(g6
S'\x8f\xc2\xf5(\\\x0f"@'
p21
tp22
Rp23
sS'd'
p24
g2
(g6
S'z\xcb.\x03-\xf6\xed?'
p25
tp26
Rp27
sS'start'
p28
g2
(g6
S'\xb8\x1e\x85\xebQ8 @'
p29
tp30
Rp31
s.