(dp0
S'a'
p1
cnumpy.core.multiarray
scalar
p2
(cnumpy
dtype
p3
(S'f8'
p4
I0
I1
tp5
Rp6
(I3
S'<'
p7
NNNI-1
I-1
I0
tp8
bS'\xe3i4\xa6\xc4r\x1c\xc0'
p9
tp10
Rp11
sS'c'
p12
g2
(g6
S'\xcfXA)\xc8_\xec?'
p13
tp14
Rp15
sS'b'
p16
g2
(g6
S'\xfa=2\xab=\x12\x95@'
p17
tp18
Rp19
sS'end'
p20
g2
(g6
S'\xbe\x9f\x1a/\xdd$\x00@'
p21
tp22
Rp23
sS'd'
p24
g2
(g6
S'\xae\x8eW\x8e.\x90\xec?'
p25
tp26
Rp27
sS'start'
p28
g2
(g6
S'\\\x8f\xc2\xf5(\\\xef?'
p29
tp30
Rp31
s.