(dp0
S'a'
p1
cnumpy.core.multiarray
scalar
p2
(cnumpy
dtype
p3
(S'f8'
p4
I0
I1
tp5
Rp6
(I3
S'<'
p7
NNNI-1
I-1
I0
tp8
bS'/\xb6J\x006D\x8d\xc0'
p9
tp10
Rp11
sS'c'
p12
g2
(g6
S'D\xe5\xc8\x813\x00\xeb?'
p13
tp14
Rp15
sS'b'
p16
g2
(g6
S"+'\x0c\x1e\x00\x1e\x8c@"
p17
tp18
Rp19
sS'end'
p20
g2
(g6
S'\xb3{\xf2\xb0Pk\x8a?'
p21
tp22
Rp23
sS'd'
p24
g2
(g6
S'\xf2=J\x19\xb9?\xeb?'
p25
tp26
Rp27
sS'start'
p28
g2
(g6
S'"\xfd\xf6u\xe0\x9c\x81?'
p29
tp30
Rp31
s.