(dp0
S'a'
p1
cnumpy.core.multiarray
scalar
p2
(cnumpy
dtype
p3
(S'f8'
p4
I0
I1
tp5
Rp6
(I3
S'<'
p7
NNNI-1
I-1
I0
tp8
bS'Wi80\x80\x0e\xf6\xbf'
p9
tp10
Rp11
sS'c'
p12
g2
(g6
S'W\x1fIDP\xf9\xeb?'
p13
tp14
Rp15
sS'b'
p16
g2
(g6
S'\xe8\\-\xe0\xc0\xef\x8e@'
p17
tp18
Rp19
sS'end'
p20
g2
(g6
S'\x9a\x99\x99\x99\x99\x19$@'
p21
tp22
Rp23
sS'd'
p24
g2
(g6
S'\xa3\x9e$\x91i\x0e\xec?'
p25
tp26
Rp27
sS'start'
p28
g2
(g6
S'P\x8d\x97n\x12C"@'
p29
tp30
Rp31
s.