(dp0
S'a'
p1
cnumpy.core.multiarray
scalar
p2
(cnumpy
dtype
p3
(S'f8'
p4
I0
I1
tp5
Rp6
(I3
S'<'
p7
NNNI-1
I-1
I0
tp8
bS'8\xd1Yt(V\xbd?'
p9
tp10
Rp11
sS'start'
p12
g2
(g6
S'\xef\x0b\x7fQN\xb3\xf1?'
p13
tp14
Rp15
sS'c'
p16
g2
(g6
S'\x8e~[:\xe7\x8f\xce?'
p17
tp18
Rp19
sS'intercept'
p20
g2
(g6
S'\x85\x96\x89R\x1dV\xe7?'
p21
tp22
Rp23
sS'b'
p24
g2
(g6
S'\xab\xd7\x10,\x97f\xf6?'
p25
tp26
Rp27
s.