(dp0
S'a'
p1
cnumpy.core.multiarray
scalar
p2
(cnumpy
dtype
p3
(S'f8'
p4
I0
I1
tp5
Rp6
(I3
S'<'
p7
NNNI-1
I-1
I0
tp8
bS'\xdd\x84\x9c\x17\xb0E\x1a@'
p9
tp10
Rp11
sS'c'
p12
g2
(g6
S'\xbc\xbb\xeeD\xf58\xee?'
p13
tp14
Rp15
sS'b'
p16
g2
(g6
S'e\x91\xdb\x9d\xe0A\xc8\xc0'
p17
tp18
Rp19
sS'end'
p20
g2
(g6
S'5^\xbaI\x0c\x027@'
p21
tp22
Rp23
sS'd'
p24
g2
(g6
S'Av\xdf\xae\xe9=\xee?'
p25
tp26
Rp27
sS'start'
p28
g2
(g6
S'\xe1z\x14\xaeGa4@'
p29
tp30
Rp31
s.