(dp0
S'slope'
p1
cnumpy.core.multiarray
scalar
p2
(cnumpy
dtype
p3
(S'f8'
p4
I0
I1
tp5
Rp6
(I3
S'<'
p7
NNNI-1
I-1
I0
tp8
bS'\xc6\xc4\xd5\x92\xd3\x9fC\xbf'
p9
tp10
Rp11
sS'intercept'
p12
g2
(g6
S'5\x9e\x8d\x9e$z\xec?'
p13
tp14
Rp15
s.