(dp0
S'a'
p1
cnumpy.core.multiarray
scalar
p2
(cnumpy
dtype
p3
(S'f8'
p4
I0
I1
tp5
Rp6
(I3
S'<'
p7
NNNI-1
I-1
I0
tp8
bS'\xf3\x12\xe5\x91?Z\xca\xbf'
p9
tp10
Rp11
sS'c'
p12
g2
(g6
S'\xf1ZWg\xfc&\xed?'
p13
tp14
Rp15
sS'b'
p16
g2
(g6
S'\xf8\xf2/-\xf9\xe5t@'
p17
tp18
Rp19
sS'end'
p20
g2
(g6
S'\xc3\xf5(\\\x8f\xc2\x15@'
p21
tp22
Rp23
sS'd'
p24
g2
(g6
S'nL\xaao\xc3k\xed?'
p25
tp26
Rp27
sS'start'
p28
g2
(g6
S'\x9a\x99\x99\x99\x99\x99\xf9?'
p29
tp30
Rp31
s.