(dp0
S'a'
p1
cnumpy.core.multiarray
scalar
p2
(cnumpy
dtype
p3
(S'f8'
p4
I0
I1
tp5
Rp6
(I3
S'<'
p7
NNNI-1
I-1
I0
tp8
bS'"\x82\x85}KX\x92?'
p9
tp10
Rp11
sS'start'
p12
g2
(g6
S'\xaa\xf1\xd2Mb\x10\x98?'
p13
tp14
Rp15
sS'c'
p16
g2
(g6
S'k\xa5\xc0\xfa\xf3\xd7\x97@'
p17
tp18
Rp19
sS'intercept'
p20
g2
(g6
S'!j\xb2\x04\x1ao\xeb?'
p21
tp22
Rp23
sS'b'
p24
g2
(g6
S'I\xf2\xc5\x1d\xb1\x1a\xfb?'
p25
tp26
Rp27
s.