(dp0
S'mean particle size'
p1
F3.2942353095487933
sS'average temperature'
p2
cnumpy.core.multiarray
scalar
p3
(cnumpy
dtype
p4
(S'f8'
p5
I0
I1
tp6
Rp7
(I3
S'<'
p8
NNNI-1
I-1
I0
tp9
bS'|X\xd43\xef\x8ee@'
p10
tp11
Rp12
sS'percent added water by weight'
p13
F0.0
sS'average pore pressure'
p14
g3
(g7
S'z\xb1c\xe8\xc7\x9f3@'
p15
tp16
Rp17
sS'average confining pressure'
p18
g3
(g7
S'\x0f@\xc5\x8b\xa3\xfe=@'
p19
tp20
Rp21
s.