(dp0
S'a'
p1
cnumpy.core.multiarray
scalar
p2
(cnumpy
dtype
p3
(S'f8'
p4
I0
I1
tp5
Rp6
(I3
S'<'
p7
NNNI-1
I-1
I0
tp8
bS'\xf3\xef.e\x7f&\xd8?'
p9
tp10
Rp11
sS'c'
p12
g2
(g6
S'\x02\t\xefW\xe8\x92\xea?'
p13
tp14
Rp15
sS'b'
p16
g2
(g6
S'V\xf1"\xdf\xbc\xacV@'
p17
tp18
Rp19
sS'end'
p20
g2
(g6
S'333333\xef?'
p21
tp22
Rp23
sS'd'
p24
g2
(g6
S'\xe9\x8f\xb3\x03\x9dK\xec?'
p25
tp26
Rp27
sS'start'
p28
g2
(g6
S'9\xb4\xc8v\xbe\x9fz?'
p29
tp30
Rp31
s.