(dp0
S'slope'
p1
cnumpy.core.multiarray
scalar
p2
(cnumpy
dtype
p3
(S'f8'
p4
I0
I1
tp5
Rp6
(I3
S'<'
p7
NNNI-1
I-1
I0
tp8
bS'\x8a\xd3\x8e\xe5\x9c\x91(?'
p9
tp10
Rp11
sS'intercept'
p12
g2
(g6
S'{\xcb\xe6\x13L$\xee?'
p13
tp14
Rp15
s.