(dp0
S'a'
p1
cnumpy.core.multiarray
scalar
p2
(cnumpy
dtype
p3
(S'f8'
p4
I0
I1
tp5
Rp6
(I3
S'<'
p7
NNNI-1
I-1
I0
tp8
bS'\xdb\xf3\x91\x9e\n\x8b\xb7?'
p9
tp10
Rp11
sS'start'
p12
g2
(g6
S'\xc6SN\x9b\x03\xbe\x9a?'
p13
tp14
Rp15
sS'c'
p16
g2
(g6
S'\xd3\xb4S,\xdd_\xd8?'
p17
tp18
Rp19
sS'intercept'
p20
g2
(g6
S'i\xd1~|\x08A\xe9?'
p21
tp22
Rp23
sS'b'
p24
g2
(g6
S'x\xaa\x8a\x9a\x8b\x1d\x15@'
p25
tp26
Rp27
s.