(dp0
S'a'
p1
cnumpy.core.multiarray
scalar
p2
(cnumpy
dtype
p3
(S'f8'
p4
I0
I1
tp5
Rp6
(I3
S'<'
p7
NNNI-1
I-1
I0
tp8
bS"\xce'<\xa9v\xd8\xc8\xbf"
p9
tp10
Rp11
sS'c'
p12
g2
(g6
S'\x9f\x07\xce^!\xb7\xea?'
p13
tp14
Rp15
sS'b'
p16
g2
(g6
S'.t\xd1\xc6\x89\xe1h@'
p17
tp18
Rp19
sS'end'
p20
g2
(g6
S'\x00\x00\x00\x00\x00\x00"@'
p21
tp22
Rp23
sS'd'
p24
g2
(g6
S'Zz\x9d4\xab|\xee?'
p25
tp26
Rp27
sS'start'
p28
g2
(g6
S'X9\xb4\xc8v\xbe\x00@'
p29
tp30
Rp31
s.