(dp0
S'a'
p1
cnumpy.core.multiarray
scalar
p2
(cnumpy
dtype
p3
(S'f8'
p4
I0
I1
tp5
Rp6
(I3
S'<'
p7
NNNI-1
I-1
I0
tp8
bS'\x17\xb4\xe6X\xee\xcf\xd8?'
p9
tp10
Rp11
sS'c'
p12
g2
(g6
S'\x90\xf1\x02=\xda1\xec?'
p13
tp14
Rp15
sS'b'
p16
g2
(g6
S'"\x90<N\xf4\x84Z@'
p17
tp18
Rp19
sS'end'
p20
g2
(g6
S'H\xe1z\x14\xae\xc7\x15@'
p21
tp22
Rp23
sS'd'
p24
g2
(g6
S'#\x9d\xc0]\x07i\xed?'
p25
tp26
Rp27
sS'start'
p28
g2
(g6
S'\xac\x1cZd;\xdf\xdf?'
p29
tp30
Rp31
s.