(dp0
S'a'
p1
cnumpy.core.multiarray
scalar
p2
(cnumpy
dtype
p3
(S'f8'
p4
I0
I1
tp5
Rp6
(I3
S'<'
p7
NNNI-1
I-1
I0
tp8
bS'\xa0\xb2\x17\xfe\xe2N\xf2?'
p9
tp10
Rp11
sS'c'
p12
g2
(g6
S'\x04\x9d\x1e)YJ\xea?'
p13
tp14
Rp15
sS'b'
p16
g2
(g6
S'u\xd9\t\x18\xbcF(@'
p17
tp18
Rp19
sS'end'
p20
g2
(g6
S'\xe1z\x14\xaeG\xe1\xfe?'
p21
tp22
Rp23
sS'd'
p24
g2
(g6
S'z\x04\x03L\xde\xb9\xec?'
p25
tp26
Rp27
sS'start'
p28
g2
(g6
S'{\x14\xaeG\xe1z\x84?'
p29
tp30
Rp31
s.