(dp0
S'slope'
p1
cnumpy.core.multiarray
scalar
p2
(cnumpy
dtype
p3
(S'f8'
p4
I0
I1
tp5
Rp6
(I3
S'<'
p7
NNNI-1
I-1
I0
tp8
bS'\xdc\x02aJ\xfc\x99\x02?'
p9
tp10
Rp11
sS'intercept'
p12
g2
(g6
S'\xd2\xe2K\xf9\xfa\xf3\xeb?'
p13
tp14
Rp15
s.