(dp0
S'mean particle size'
p1
F3.2942353095487933
sS'average temperature'
p2
cnumpy.core.multiarray
scalar
p3
(cnumpy
dtype
p4
(S'f8'
p5
I0
I1
tp6
Rp7
(I3
S'<'
p8
NNNI-1
I-1
I0
tp9
bS'^M4EV\xa3e@'
p10
tp11
Rp12
sS'percent added water by weight'
p13
F0.0
sS'average pore pressure'
p14
g3
(g7
S'!\x15\x95\x80N\x948@'
p15
tp16
Rp17
sS'average confining pressure'
p18
g3
(g7
S"'\xa6\x19]\x88\xf8=@"
p19
tp20
Rp21
s.