(dp0
S'a'
p1
cnumpy.core.multiarray
scalar
p2
(cnumpy
dtype
p3
(S'f8'
p4
I0
I1
tp5
Rp6
(I3
S'<'
p7
NNNI-1
I-1
I0
tp8
bS')\x08\xcc;\x12\x8f\xa0?'
p9
tp10
Rp11
sS'start'
p12
g2
(g6
S'\x9f\xc1\x7f\x86\xfe\x92\x1d@'
p13
tp14
Rp15
sS'c'
p16
g2
(g6
S'\xa2\xb65;\xc8\x9b\xd4?'
p17
tp18
Rp19
sS'intercept'
p20
g2
(g6
S"a\xe3w\xe24'\xec?"
p21
tp22
Rp23
sS'b'
p24
g2
(g6
S'J\x08\x96M@\x0c\x02@'
p25
tp26
Rp27
s.