(dp0
S'slope'
p1
cnumpy.core.multiarray
scalar
p2
(cnumpy
dtype
p3
(S'f8'
p4
I0
I1
tp5
Rp6
(I3
S'<'
p7
NNNI-1
I-1
I0
tp8
bS'\xfd\xfa\x94\x98;*L?'
p9
tp10
Rp11
sS'intercept'
p12
g2
(g6
S'\xd4\xf2Q\x00\xc19\xec?'
p13
tp14
Rp15
s.