(dp0
S'a'
p1
cnumpy.core.multiarray
scalar
p2
(cnumpy
dtype
p3
(S'f8'
p4
I0
I1
tp5
Rp6
(I3
S'<'
p7
NNNI-1
I-1
I0
tp8
bS'\x16\xf5#<\xfa\xb3o?'
p9
tp10
Rp11
sS'start'
p12
g2
(g6
S'\x08\xac\x1cZd\xfb!@'
p13
tp14
Rp15
sS'c'
p16
g2
(g6
S'k"A\xca}\x11(@'
p17
tp18
Rp19
sS'intercept'
p20
g2
(g6
S'\xd1\xa8>\xe3]\x18\xed?'
p21
tp22
Rp23
sS'b'
p24
g2
(g6
S'\x93\xde\xe2\xccb\xd4\xf8?'
p25
tp26
Rp27
s.