(dp0
S'a'
p1
cnumpy.core.multiarray
scalar
p2
(cnumpy
dtype
p3
(S'f8'
p4
I0
I1
tp5
Rp6
(I3
S'<'
p7
NNNI-1
I-1
I0
tp8
bS'\xfb\xed\xd5q\xdf\x91\x10\xc0'
p9
tp10
Rp11
sS'c'
p12
g2
(g6
S'\nK\xeft\xad\x17\xee?'
p13
tp14
Rp15
sS'b'
p16
g2
(g6
S'R\x99\xebK\x05e\xa3@'
p17
tp18
Rp19
sS'end'
p20
g2
(g6
S'{\x14\xaeG\xe1\xfa%@'
p21
tp22
Rp23
sS'd'
p24
g2
(g6
S'0\xbf\x13\x8e\x9a4\xee?'
p25
tp26
Rp27
sS'start'
p28
g2
(g6
S'\\\x8f\xc2\xf5(\x1c"@'
p29
tp30
Rp31
s.