(dp0
S'mean particle size'
p1
F2.0
sS'average temperature'
p2
cnumpy.core.multiarray
scalar
p3
(cnumpy
dtype
p4
(S'f8'
p5
I0
I1
tp6
Rp7
(I3
S'<'
p8
NNNI-1
I-1
I0
tp9
bS'\xeb\xea>\xf4\xe3Ae@'
p10
tp11
Rp12
sS'percent added water by weight'
p13
F0.0
sS'average pore pressure'
p14
g3
(g7
S"\x08\x8f1\xecO'\xbb?"
p15
tp16
Rp17
sS'average confining pressure'
p18
g3
(g7
S'g\x99)\xd8\xdd\xfeB@'
p19
tp20
Rp21
s.