(dp0
S'mean particle size'
p1
F3.2942353095487933
sS'average temperature'
p2
cnumpy.core.multiarray
scalar
p3
(cnumpy
dtype
p4
(S'f8'
p5
I0
I1
tp6
Rp7
(I3
S'<'
p8
NNNI-1
I-1
I0
tp9
bS'\x04CKm\x03\x9fe@'
p10
tp11
Rp12
sS'percent added water by weight'
p13
F0.0
sS'average pore pressure'
p14
g3
(g7
S'@jk\x91\xb4\xa4#@'
p15
tp16
Rp17
sS'average confining pressure'
p18
g3
(g7
S'\xce<\x00k\xc4\xfe=@'
p19
tp20
Rp21
s.