(dp0
S'a'
p1
cnumpy.core.multiarray
scalar
p2
(cnumpy
dtype
p3
(S'f8'
p4
I0
I1
tp5
Rp6
(I3
S'<'
p7
NNNI-1
I-1
I0
tp8
bS'\xb4\x0cdl\xc0\x07\x90@'
p9
tp10
Rp11
sS'c'
p12
g2
(g6
S'\x9cB@\xcd\x94 \xec?'
p13
tp14
Rp15
sS'b'
p16
g2
(g6
S'f{\xcb}`\xb9x\xc0'
p17
tp18
Rp19
sS'end'
p20
g2
(g6
S'\\\x8f\xc2\xf5(\\\xff?'
p21
tp22
Rp23
sS'd'
p24
g2
(g6
S'\x03\x86\xf3I r\xec?'
p25
tp26
Rp27
sS'start'
p28
g2
(g6
S'\x1f\x85\xebQ\xb8\x1e\xff?'
p29
tp30
Rp31
s.