(dp0
S'slope'
p1
cnumpy.core.multiarray
scalar
p2
(cnumpy
dtype
p3
(S'f8'
p4
I0
I1
tp5
Rp6
(I3
S'<'
p7
NNNI-1
I-1
I0
tp8
bS'\x84\x12\xd3\xda|%\x1e?'
p9
tp10
Rp11
sS'intercept'
p12
g2
(g6
S'\xff\xd4!7\xf8\xef\xeb?'
p13
tp14
Rp15
s.