(dp0
S'a'
p1
cnumpy.core.multiarray
scalar
p2
(cnumpy
dtype
p3
(S'f8'
p4
I0
I1
tp5
Rp6
(I3
S'<'
p7
NNNI-1
I-1
I0
tp8
bS'\xab\xfc\x1a\xde\xaf\xf3\xcd?'
p9
tp10
Rp11
sS'c'
p12
g2
(g6
S'kk\xady`\n\xed?'
p13
tp14
Rp15
sS'b'
p16
g2
(g6
S'#\xc5\x8b;kEb@'
p17
tp18
Rp19
sS'end'
p20
g2
(g6
S'\xf6(\\\x8f\xc2\xf5\x06@'
p21
tp22
Rp23
sS'd'
p24
g2
(g6
S'\xe5\xf7\xe67]/\xee?'
p25
tp26
Rp27
sS'start'
p28
g2
(g6
S'y\xe9&1\x08\xac\x9c?'
p29
tp30
Rp31
s.