(dp0
S'slope'
p1
cnumpy.core.multiarray
scalar
p2
(cnumpy
dtype
p3
(S'f8'
p4
I0
I1
tp5
Rp6
(I3
S'<'
p7
NNNI-1
I-1
I0
tp8
bS"\xce\xb8\x1b\xe8\xf6\xaa'?"
p9
tp10
Rp11
sS'intercept'
p12
g2
(g6
S'\x199\x8a\xd0+\xfc\xed?'
p13
tp14
Rp15
s.