(dp0
S'a'
p1
cnumpy.core.multiarray
scalar
p2
(cnumpy
dtype
p3
(S'f8'
p4
I0
I1
tp5
Rp6
(I3
S'<'
p7
NNNI-1
I-1
I0
tp8
bS'Q\x1d.\xce2\xe0\xea?'
p9
tp10
Rp11
sS'c'
p12
g2
(g6
S'\xe4i>R\x1a\x0b\xec?'
p13
tp14
Rp15
sS'b'
p16
g2
(g6
S'\xe4\xc9\xc2l{\x88f@'
p17
tp18
Rp19
sS'end'
p20
g2
(g6
S'\xb8\x1e\x85\xebQ\xb8\xf0?'
p21
tp22
Rp23
sS'd'
p24
g2
(g6
S'Z\x89\xc8o\xe5\x19\xed?'
p25
tp26
Rp27
sS'start'
p28
g2
(g6
S'\xc9v\xbe\x9f\x1a/\x9d?'
p29
tp30
Rp31
s.