(dp0
S'a'
p1
cnumpy.core.multiarray
scalar
p2
(cnumpy
dtype
p3
(S'f8'
p4
I0
I1
tp5
Rp6
(I3
S'<'
p7
NNNI-1
I-1
I0
tp8
bS'\x03\xff\xecc\x05i\xb4?'
p9
tp10
Rp11
sS'start'
p12
g2
(g6
S'\xc3\xf5(\\\x8f\xc2\xdd?'
p13
tp14
Rp15
sS'c'
p16
g2
(g6
S'O\xc0\xef\x80\x9e\xf9\x95@'
p17
tp18
Rp19
sS'intercept'
p20
g2
(g6
S'\x91\x0b%\xe9Y1\xe9?'
p21
tp22
Rp23
sS'b'
p24
g2
(g6
S'\xd3oK\xdauO\x1d@'
p25
tp26
Rp27
s.