(dp0
S'a'
p1
cnumpy.core.multiarray
scalar
p2
(cnumpy
dtype
p3
(S'f8'
p4
I0
I1
tp5
Rp6
(I3
S'<'
p7
NNNI-1
I-1
I0
tp8
bS'\xb0d\x00l:j\xf3\xbf'
p9
tp10
Rp11
sS'c'
p12
g2
(g6
S'&\x02\xda\xf7\x1c\r\xed?'
p13
tp14
Rp15
sS'b'
p16
g2
(g6
S'D\x82\xc1\xe8\xa9\xbah@'
p17
tp18
Rp19
sS'end'
p20
g2
(g6
S'\n\xd7\xa3p=\n\xeb?'
p21
tp22
Rp23
sS'd'
p24
g2
(g6
S'\x976\xe7q\xbd)\xee?'
p25
tp26
Rp27
sS'start'
p28
g2
(g6
S'y\xe9&1\x08\xacl?'
p29
tp30
Rp31
s.