(dp0
S'a'
p1
cnumpy.core.multiarray
scalar
p2
(cnumpy
dtype
p3
(S'f8'
p4
I0
I1
tp5
Rp6
(I3
S'<'
p7
NNNI-1
I-1
I0
tp8
bS'\xb6lf%\x7fE~@'
p9
tp10
Rp11
sS'c'
p12
g2
(g6
S'Z\x89\x0b\xaaoJ\xe9?'
p13
tp14
Rp15
sS'b'
p16
g2
(g6
S'\xb5\x7f\xb6\x84\x0e\xafq@'
p17
tp18
Rp19
sS'end'
p20
g2
(g6
S'n\xa3\x01\xbc\x05\x12t?'
p21
tp22
Rp23
sS'd'
p24
g2
(g6
S'>\x9c\x98O\x19z\xe9?'
p25
tp26
Rp27
sS'start'
p28
g2
(g6
S'\x15\x8cJ\xea\x044a?'
p29
tp30
Rp31
s.