(dp0
S'a'
p1
cnumpy.core.multiarray
scalar
p2
(cnumpy
dtype
p3
(S'f8'
p4
I0
I1
tp5
Rp6
(I3
S'<'
p7
NNNI-1
I-1
I0
tp8
bS'\xac\xa3\x08<Y]\xae?'
p9
tp10
Rp11
sS'start'
p12
g2
(g6
S'{\x14\xaeG\xe1zt?'
p13
tp14
Rp15
sS'c'
p16
g2
(g6
S'O\xa1+\xd6\x96S\x97@'
p17
tp18
Rp19
sS'intercept'
p20
g2
(g6
S'\x10\x1c7X-n\xe9?'
p21
tp22
Rp23
sS'b'
p24
g2
(g6
S'L\xe4!2\x13\xa1\r@'
p25
tp26
Rp27
s.