(dp0
S'slope'
p1
cnumpy.core.multiarray
scalar
p2
(cnumpy
dtype
p3
(S'f8'
p4
I0
I1
tp5
Rp6
(I3
S'<'
p7
NNNI-1
I-1
I0
tp8
bS'\x00\xfa\xe2\xd5\x0b\x18b?'
p9
tp10
Rp11
sS'intercept'
p12
g2
(g6
S'\x14\x11\xc7\xff\xa3S\xed?'
p13
tp14
Rp15
s.