(dp0
S'a'
p1
cnumpy.core.multiarray
scalar
p2
(cnumpy
dtype
p3
(S'f8'
p4
I0
I1
tp5
Rp6
(I3
S'<'
p7
NNNI-1
I-1
I0
tp8
bS'\x13jX\x935\x03\x90?'
p9
tp10
Rp11
sS'start'
p12
g2
(g6
S'\x9a\xd5\xa16tL\xb7?'
p13
tp14
Rp15
sS'c'
p16
g2
(g6
S'\xbf\x95\xcf\x8a\xf9\xf7\r@'
p17
tp18
Rp19
sS'intercept'
p20
g2
(g6
S'K\xa4\xf9\x83w>\xe9?'
p21
tp22
Rp23
sS'b'
p24
g2
(g6
S'{\xe10\x865\xd8A@'
p25
tp26
Rp27
s.