(dp0
S'a'
p1
cnumpy.core.multiarray
scalar
p2
(cnumpy
dtype
p3
(S'f8'
p4
I0
I1
tp5
Rp6
(I3
S'<'
p7
NNNI-1
I-1
I0
tp8
bS'm\xe9\x88\xdf\x1e2\xa4?'
p9
tp10
Rp11
sS'start'
p12
g2
(g6
S'\xa6\xac\xde\x02t5\xb9?'
p13
tp14
Rp15
sS'c'
p16
g2
(g6
S'WP\xc1\xd5\xa2\x8d\xb6?'
p17
tp18
Rp19
sS'intercept'
p20
g2
(g6
S'\xefL\x89"Y6\xe9?'
p21
tp22
Rp23
sS'b'
p24
g2
(g6
S'\xab\x84\\\x14F+\xf0?'
p25
tp26
Rp27
s.