(dp0
S'a'
p1
cnumpy.core.multiarray
scalar
p2
(cnumpy
dtype
p3
(S'f8'
p4
I0
I1
tp5
Rp6
(I3
S'<'
p7
NNNI-1
I-1
I0
tp8
bS'\x19\xc6rx\x07+\xf6?'
p9
tp10
Rp11
sS'c'
p12
g2
(g6
S'\x0e\xba\xaa\xe9\x03F\xec?'
p13
tp14
Rp15
sS'b'
p16
g2
(g6
S'\xd2\x0f\xb0\xf41\xfbi@'
p17
tp18
Rp19
sS'end'
p20
g2
(g6
S'=\n\xd7\xa3p\xbd\x1b@'
p21
tp22
Rp23
sS'd'
p24
g2
(g6
S'd8\xb6\xfc_\x1c\xed?'
p25
tp26
Rp27
sS'start'
p28
g2
(g6
S'\xc3\xf5(\\\x8f\xc2\x0e@'
p29
tp30
Rp31
s.