(dp0
S'a'
p1
cnumpy.core.multiarray
scalar
p2
(cnumpy
dtype
p3
(S'f8'
p4
I0
I1
tp5
Rp6
(I3
S'<'
p7
NNNI-1
I-1
I0
tp8
bS'=0;a6f\xe8?'
p9
tp10
Rp11
sS'c'
p12
g2
(g6
S'\xd3K\x81u\xa8z\xe9?'
p13
tp14
Rp15
sS'b'
p16
g2
(g6
S'\xc3\xf8\xee1\xb81N@'
p17
tp18
Rp19
sS'end'
p20
g2
(g6
S'{\x14\xaeG\xe1\xfa\x12@'
p21
tp22
Rp23
sS'd'
p24
g2
(g6
S'\xf1Ng\xf3\x8c\x8d\xed?'
p25
tp26
Rp27
sS'start'
p28
g2
(g6
S'{\x14\xaeG\xe1zd?'
p29
tp30
Rp31
s.